target datalayout = "e-m:e-p270:32:32-p271:32:32-p272:64:64-i64:64-i128:128-f80:128-n8:16:32:64-S128"
target triple = "x86_64-pc-linux-gnu"

%class.FunctionInvocationUser = type <{ %class.FunctionInvocation, ptr, i8, [7 x i8] }>
%class.FunctionInvocation = type { ptr, i32, %"class.std::vector.9", i8, i8, ptr }
%"class.std::vector.9" = type { %"struct.std::_Vector_base.10" }
%"struct.std::_Vector_base.10" = type { %"struct.std::_Vector_base<const Expression *, std::allocator<const Expression *>>::_Vector_impl" }
%"struct.std::_Vector_base<const Expression *, std::allocator<const Expression *>>::_Vector_impl" = type { %"struct.std::_Vector_base<const Expression *, std::allocator<const Expression *>>::_Vector_impl_data" }
%"struct.std::_Vector_base<const Expression *, std::allocator<const Expression *>>::_Vector_impl_data" = type { ptr, ptr, ptr }

; Function Attrs: mustprogress uwtable
define dso_local void @_ZN22FunctionInvocationUserC2ERKS_(ptr noundef nonnull align 8 dereferenceable(65) %0, ptr noundef nonnull align 8 dereferenceable(65) %1) unnamed_addr #5 align 2 {
  %3 = alloca ptr, align 8
  %4 = alloca ptr, align 8
  store ptr %0, ptr %3, align 8, !tbaa !23
  store ptr %1, ptr %4, align 8, !tbaa !23
  %5 = load ptr, ptr %3, align 8
  %6 = load ptr, ptr %4, align 8, !tbaa !23
  call void @_ZN18FunctionInvocationC2ERKS_(ptr noundef nonnull align 8 dereferenceable(56) %5, ptr noundef nonnull align 8 dereferenceable(56) %6)
  store ptr getelementptr inbounds inrange(-16, 104) ({ [15 x ptr] }, ptr @_ZTV22FunctionInvocationUser, i32 0, i32 0, i32 2), ptr %5, align 8, !tbaa !35
  %7 = getelementptr inbounds nuw %class.FunctionInvocationUser, ptr %5, i32 0, i32 1
  %8 = load ptr, ptr %4, align 8, !tbaa !23
  %9 = getelementptr inbounds nuw %class.FunctionInvocationUser, ptr %8, i32 0, i32 1
  %10 = load ptr, ptr %9, align 8, !tbaa !49
  store ptr %10, ptr %7, align 8, !tbaa !49
  %11 = getelementptr inbounds nuw %class.FunctionInvocationUser, ptr %5, i32 0, i32 2
  %12 = load ptr, ptr %4, align 8, !tbaa !23
  %13 = getelementptr inbounds nuw %class.FunctionInvocationUser, ptr %12, i32 0, i32 2
  %14 = load i8, ptr %13, align 8, !tbaa !95, !range !93, !noundef !94
  %15 = trunc i8 %14 to i1
  %16 = zext i1 %15 to i8
  store i8 %16, ptr %11, align 8, !tbaa !95
  ret void
}