; Function Attrs: mustprogress uwtable
define dso_local void @_ZN22FunctionInvocationUserC2ERKS_(ptr noundef nonnull align 8 dereferenceable(65) %0, ptr noundef nonnull align 8 dereferenceable(65) %1) unnamed_addr #4 align 2 {
  tail call void @_ZN18FunctionInvocationC2ERKS_(ptr noundef nonnull align 8 dereferenceable(56) %0, ptr noundef nonnull align 8 dereferenceable(56) %1)
  store ptr getelementptr inbounds nuw inrange(-16, 104) (i8, ptr @_ZTV22FunctionInvocationUser, i64 16), ptr %0, align 8, !tbaa !30
  %3 = getelementptr inbounds nuw i8, ptr %0, i64 56
  %4 = getelementptr inbounds nuw i8, ptr %1, i64 56
  %5 = load ptr, ptr %4, align 8, !tbaa !36
  store ptr %5, ptr %3, align 8, !tbaa !36
  %6 = getelementptr inbounds nuw i8, ptr %0, i64 64
  %7 = getelementptr inbounds nuw i8, ptr %1, i64 64
  %8 = load i8, ptr %7, align 8, !tbaa !82, !range !83, !noundef !84
  store i8 %8, ptr %6, align 8, !tbaa !82
  ret void
}